target datalayout = "e-m:e-p270:32:32-p271:32:32-p272:64:64-i64:64-i128:128-f80:128-n8:16:32:64-S128"
target triple = "x86_64-pc-linux-gnu"

%struct.expert_tapdata_t = type { [5 x ptr], ptr }
%struct.expert_entry = type { i32, i32, ptr, ptr }
%struct.expert_info_s = type { i32, i32, i32, i32, ptr, ptr, ptr }
%struct._GArray = type { ptr, i32 }

@lowest_report_level = internal global i32 0, align 4
@.str.8 = private unnamed_addr constant [1 x i8] zeroinitializer, align 1
@.str.9 = private unnamed_addr constant [20 x i8] c"ui/cli/tap-expert.c\00", align 1
@__func__.expert_stat_packet = private unnamed_addr constant [19 x i8] c"expert_stat_packet\00", align 1
@.str.10 = private unnamed_addr constant [31 x i8] c"assertion \22not reached\22 failed\00", align 1

; Function Attrs: null_pointer_is_valid sspstrong uwtable
define internal i32 @expert_stat_packet(ptr noundef %0, ptr noundef %1, ptr noundef %2, ptr noundef %3, i32 noundef %4) #0 {
  %6 = alloca i32, align 4
  %7 = alloca ptr, align 8
  %8 = alloca ptr, align 8
  %9 = alloca ptr, align 8
  %10 = alloca ptr, align 8
  %11 = alloca i32, align 4
  %12 = alloca ptr, align 8
  %13 = alloca ptr, align 8
  %14 = alloca i32, align 4
  %15 = alloca %struct.expert_entry, align 8
  %16 = alloca ptr, align 8
  %17 = alloca i32, align 4
  %18 = alloca i32, align 4
  store ptr %0, ptr %7, align 8
  store ptr %1, ptr %8, align 8
  store ptr %2, ptr %9, align 8
  store ptr %3, ptr %10, align 8
  store i32 %4, ptr %11, align 4
  call void @llvm.lifetime.start.p0(i64 8, ptr %12) #9
  %19 = load ptr, ptr %10, align 8
  store ptr %19, ptr %12, align 8
  call void @llvm.lifetime.start.p0(i64 8, ptr %13) #9
  %20 = load ptr, ptr %7, align 8
  store ptr %20, ptr %13, align 8
  call void @llvm.lifetime.start.p0(i64 4, ptr %14) #9
  call void @llvm.lifetime.start.p0(i64 24, ptr %15) #9
  call void @llvm.lifetime.start.p0(i64 8, ptr %16) #9
  call void @llvm.lifetime.start.p0(i64 4, ptr %17) #9
  %21 = load ptr, ptr %12, align 8
  %22 = getelementptr inbounds nuw %struct.expert_info_s, ptr %21, i32 0, i32 2
  %23 = load i32, ptr %22, align 8
  switch i32 %23, label %29 [
    i32 1048576, label %24
    i32 2097152, label %25
    i32 4194304, label %26
    i32 6291456, label %27
    i32 8388608, label %28
  ]

24:                                               ; preds = %5
  store i32 0, ptr %14, align 4
  br label %30

25:                                               ; preds = %5
  store i32 1, ptr %14, align 4
  br label %30

26:                                               ; preds = %5
  store i32 2, ptr %14, align 4
  br label %30

27:                                               ; preds = %5
  store i32 3, ptr %14, align 4
  br label %30

28:                                               ; preds = %5
  store i32 4, ptr %14, align 4
  br label %30

29:                                               ; preds = %5
  call void (ptr, i32, ptr, i64, ptr, ptr, ...) @ws_log_fatal_full(ptr noundef @.str.8, i32 noundef 7, ptr noundef @.str.9, i64 noundef 102, ptr noundef @__func__.expert_stat_packet, ptr noundef @.str.10) #14
  unreachable

30:                                               ; preds = %28, %27, %26, %25, %24
  %31 = load i32, ptr %14, align 4
  %32 = load i32, ptr @lowest_report_level, align 4
  %33 = icmp ult i32 %31, %32
  br i1 %33, label %34, label %35

34:                                               ; preds = %30
  store i32 1, ptr %6, align 4
  store i32 1, ptr %18, align 4
  br label %118

35:                                               ; preds = %30
  store i32 0, ptr %17, align 4
  br label %36

36:                                               ; preds = %82, %35
  %37 = load i32, ptr %17, align 4
  %38 = load ptr, ptr %13, align 8
  %39 = getelementptr inbounds nuw %struct.expert_tapdata_t, ptr %38, i32 0, i32 0
  %40 = load i32, ptr %14, align 4
  %41 = zext i32 %40 to i64
  %42 = getelementptr [5 x ptr], ptr %39, i64 0, i64 %41
  %43 = load ptr, ptr %42, align 8
  %44 = getelementptr inbounds nuw %struct._GArray, ptr %43, i32 0, i32 1
  %45 = load i32, ptr %44, align 8
  %46 = icmp ult i32 %37, %45
  br i1 %46, label %47, label %85

47:                                               ; preds = %36
  %48 = load ptr, ptr %13, align 8
  %49 = getelementptr inbounds nuw %struct.expert_tapdata_t, ptr %48, i32 0, i32 0
  %50 = load i32, ptr %14, align 4
  %51 = zext i32 %50 to i64
  %52 = getelementptr [5 x ptr], ptr %49, i64 0, i64 %51
  %53 = load ptr, ptr %52, align 8
  %54 = getelementptr inbounds nuw %struct._GArray, ptr %53, i32 0, i32 0
  %55 = load ptr, ptr %54, align 8
  %56 = load i32, ptr %17, align 4
  %57 = zext i32 %56 to i64
  %58 = getelementptr %struct.expert_entry, ptr %55, i64 %57
  store ptr %58, ptr %16, align 8
  %59 = load ptr, ptr %12, align 8
  %60 = getelementptr inbounds nuw %struct.expert_info_s, ptr %59, i32 0, i32 4
  %61 = load ptr, ptr %60, align 8
  %62 = load ptr, ptr %16, align 8
  %63 = getelementptr inbounds nuw %struct.expert_entry, ptr %62, i32 0, i32 2
  %64 = load ptr, ptr %63, align 8
  %65 = call i32 @strcmp(ptr noundef %61, ptr noundef %64) #10
  %66 = icmp eq i32 %65, 0
  br i1 %66, label %67, label %81

67:                                               ; preds = %47
  %68 = load ptr, ptr %12, align 8
  %69 = getelementptr inbounds nuw %struct.expert_info_s, ptr %68, i32 0, i32 5
  %70 = load ptr, ptr %69, align 8
  %71 = load ptr, ptr %16, align 8
  %72 = getelementptr inbounds nuw %struct.expert_entry, ptr %71, i32 0, i32 3
  %73 = load ptr, ptr %72, align 8
  %74 = call i32 @strcmp(ptr noundef %70, ptr noundef %73) #10
  %75 = icmp eq i32 %74, 0
  br i1 %75, label %76, label %81

76:                                               ; preds = %67
  %77 = load ptr, ptr %16, align 8
  %78 = getelementptr inbounds nuw %struct.expert_entry, ptr %77, i32 0, i32 1
  %79 = load i32, ptr %78, align 4
  %80 = add i32 %79, 1
  store i32 %80, ptr %78, align 4
  store i32 1, ptr %6, align 4
  store i32 1, ptr %18, align 4
  br label %118

81:                                               ; preds = %67, %47
  br label %82

82:                                               ; preds = %81
  %83 = load i32, ptr %17, align 4
  %84 = add i32 %83, 1
  store i32 %84, ptr %17, align 4
  br label %36, !llvm.loop !10

85:                                               ; preds = %36
  store ptr %15, ptr %16, align 8
  %86 = load ptr, ptr %13, align 8
  %87 = getelementptr inbounds nuw %struct.expert_tapdata_t, ptr %86, i32 0, i32 1
  %88 = load ptr, ptr %87, align 8
  %89 = load ptr, ptr %12, align 8
  %90 = getelementptr inbounds nuw %struct.expert_info_s, ptr %89, i32 0, i32 4
  %91 = load ptr, ptr %90, align 8
  %92 = call ptr @g_string_chunk_insert_const(ptr noundef %88, ptr noundef %91)
  %93 = load ptr, ptr %16, align 8
  %94 = getelementptr inbounds nuw %struct.expert_entry, ptr %93, i32 0, i32 2
  store ptr %92, ptr %94, align 8
  %95 = load ptr, ptr %13, align 8
  %96 = getelementptr inbounds nuw %struct.expert_tapdata_t, ptr %95, i32 0, i32 1
  %97 = load ptr, ptr %96, align 8
  %98 = load ptr, ptr %12, align 8
  %99 = getelementptr inbounds nuw %struct.expert_info_s, ptr %98, i32 0, i32 5
  %100 = load ptr, ptr %99, align 8
  %101 = call ptr @g_string_chunk_insert_const(ptr noundef %97, ptr noundef %100)
  %102 = load ptr, ptr %16, align 8
  %103 = getelementptr inbounds nuw %struct.expert_entry, ptr %102, i32 0, i32 3
  store ptr %101, ptr %103, align 8
  %104 = load ptr, ptr %12, align 8
  %105 = getelementptr inbounds nuw %struct.expert_info_s, ptr %104, i32 0, i32 1
  %106 = load i32, ptr %105, align 4
  %107 = load ptr, ptr %16, align 8
  %108 = getelementptr inbounds nuw %struct.expert_entry, ptr %107, i32 0, i32 0
  store i32 %106, ptr %108, align 8
  %109 = load ptr, ptr %16, align 8
  %110 = getelementptr inbounds nuw %struct.expert_entry, ptr %109, i32 0, i32 1
  store i32 1, ptr %110, align 4
  %111 = load ptr, ptr %13, align 8
  %112 = getelementptr inbounds nuw %struct.expert_tapdata_t, ptr %111, i32 0, i32 0
  %113 = load i32, ptr %14, align 4
  %114 = zext i32 %113 to i64
  %115 = getelementptr [5 x ptr], ptr %112, i64 0, i64 %114
  %116 = load ptr, ptr %115, align 8
  %117 = call ptr @g_array_append_vals(ptr noundef %116, ptr noundef %15, i32 noundef 1)
  store i32 1, ptr %6, align 4
  store i32 1, ptr %18, align 4
  br label %118

118:                                              ; preds = %85, %76, %34
  call void @llvm.lifetime.end.p0(i64 4, ptr %17) #9
  call void @llvm.lifetime.end.p0(i64 8, ptr %16) #9
  call void @llvm.lifetime.end.p0(i64 24, ptr %15) #9
  call void @llvm.lifetime.end.p0(i64 4, ptr %14) #9
  call void @llvm.lifetime.end.p0(i64 8, ptr %13) #9
  call void @llvm.lifetime.end.p0(i64 8, ptr %12) #9
  %119 = load i32, ptr %6, align 4
  ret i32 %119
}