; Function Attrs: null_pointer_is_valid sspstrong uwtable
define internal noundef i32 @expert_stat_packet(ptr noundef readonly captures(none) %0, ptr readnone captures(none) %1, ptr readnone captures(none) %2, ptr noundef readonly captures(none) %3, i32 %4) #0 {
  %6 = alloca %struct.expert_entry, align 8
  call void @llvm.lifetime.start.p0(i64 24, ptr nonnull %6) #11
  %7 = getelementptr inbounds nuw i8, ptr %3, i64 8
  %8 = load i32, ptr %7, align 8
  %9 = add i32 %8, -1048576
  %10 = tail call i32 @llvm.fshl.i32(i32 %9, i32 %9, i32 12)
  %11 = icmp ult i32 %10, 8
  br i1 %11, label %switch.hole_check, label %12

12:                                               ; preds = %switch.hole_check, %5
  tail call void (ptr, i32, ptr, i64, ptr, ptr, ...) @ws_log_fatal_full(ptr noundef nonnull @.str.8, i32 noundef 7, ptr noundef nonnull @.str.9, i64 noundef 102, ptr noundef nonnull @__func__.expert_stat_packet, ptr noundef nonnull @.str.10) #12
  unreachable

switch.hole_check:                                ; preds = %5
  %switch.maskindex = trunc nuw i32 %10 to i8
  %switch.shifted = lshr i8 -85, %switch.maskindex
  %switch.lobit = trunc i8 %switch.shifted to i1
  br i1 %switch.lobit, label %switch.lookup, label %12

switch.lookup:                                    ; preds = %switch.hole_check
  %13 = zext nneg i32 %10 to i64
  %switch.gep = getelementptr inbounds nuw [8 x i32], ptr @switch.table.expert_stat_packet, i64 0, i64 %13
  %switch.load = load i32, ptr %switch.gep, align 4
  %14 = load i32, ptr @lowest_report_level, align 4
  %15 = icmp ult i32 %switch.load, %14
  br i1 %15, label %57, label %.preheader

.preheader:                                       ; preds = %switch.lookup
  %16 = zext nneg i32 %switch.load to i64
  %17 = getelementptr [5 x ptr], ptr %0, i64 0, i64 %16
  %18 = load ptr, ptr %17, align 8
  %19 = getelementptr inbounds nuw i8, ptr %18, i64 8
  %20 = load i32, ptr %19, align 8
  %.not = icmp eq i32 %20, 0
  br i1 %.not, label %.preheader.._crit_edge_crit_edge, label %.lr.ph

.preheader.._crit_edge_crit_edge:                 ; preds = %.preheader
  %.phi.trans.insert = getelementptr inbounds nuw i8, ptr %3, i64 16
  %.pre = load ptr, ptr %.phi.trans.insert, align 8
  br label %._crit_edge

.lr.ph:                                           ; preds = %.preheader
  %21 = load ptr, ptr %18, align 8
  %22 = getelementptr inbounds nuw i8, ptr %3, i64 16
  %23 = load ptr, ptr %22, align 8
  %24 = getelementptr inbounds nuw i8, ptr %3, i64 24
  %wide.trip.count = zext i32 %20 to i64
  br label %25

25:                                               ; preds = %.lr.ph, %41
  %indvars.iv = phi i64 [ 0, %.lr.ph ], [ %indvars.iv.next, %41 ]
  %26 = getelementptr %struct.expert_entry, ptr %21, i64 %indvars.iv
  %27 = getelementptr inbounds nuw i8, ptr %26, i64 8
  %28 = load ptr, ptr %27, align 8
  %29 = tail call i32 @strcmp(ptr noundef %23, ptr noundef %28) #8
  %30 = icmp eq i32 %29, 0
  br i1 %30, label %31, label %41

31:                                               ; preds = %25
  %32 = load ptr, ptr %24, align 8
  %33 = getelementptr inbounds nuw i8, ptr %26, i64 16
  %34 = load ptr, ptr %33, align 8
  %35 = tail call i32 @strcmp(ptr noundef %32, ptr noundef %34) #8
  %36 = icmp eq i32 %35, 0
  br i1 %36, label %37, label %41

37:                                               ; preds = %31
  %38 = getelementptr inbounds nuw i8, ptr %26, i64 4
  %39 = load i32, ptr %38, align 4
  %40 = add i32 %39, 1
  store i32 %40, ptr %38, align 4
  br label %57

41:                                               ; preds = %25, %31
  %indvars.iv.next = add nuw nsw i64 %indvars.iv, 1
  %exitcond.not = icmp eq i64 %indvars.iv.next, %wide.trip.count
  br i1 %exitcond.not, label %._crit_edge, label %25, !llvm.loop !10

._crit_edge:                                      ; preds = %41, %.preheader.._crit_edge_crit_edge
  %42 = phi ptr [ %.pre, %.preheader.._crit_edge_crit_edge ], [ %23, %41 ]
  %43 = getelementptr inbounds nuw i8, ptr %0, i64 40
  %44 = load ptr, ptr %43, align 8
  %45 = tail call ptr @g_string_chunk_insert_const(ptr noundef %44, ptr noundef %42)
  %46 = getelementptr inbounds nuw i8, ptr %6, i64 8
  store ptr %45, ptr %46, align 8
  %47 = load ptr, ptr %43, align 8
  %48 = getelementptr inbounds nuw i8, ptr %3, i64 24
  %49 = load ptr, ptr %48, align 8
  %50 = tail call ptr @g_string_chunk_insert_const(ptr noundef %47, ptr noundef %49)
  %51 = getelementptr inbounds nuw i8, ptr %6, i64 16
  store ptr %50, ptr %51, align 8
  %52 = getelementptr inbounds nuw i8, ptr %3, i64 4
  %53 = load i32, ptr %52, align 4
  store i32 %53, ptr %6, align 8
  %54 = getelementptr inbounds nuw i8, ptr %6, i64 4
  store i32 1, ptr %54, align 4
  %55 = load ptr, ptr %17, align 8
  %56 = call ptr @g_array_append_vals(ptr noundef %55, ptr noundef nonnull %6, i32 noundef 1)
  br label %57

57:                                               ; preds = %switch.lookup, %._crit_edge, %37
  call void @llvm.lifetime.end.p0(i64 24, ptr nonnull %6) #11
  ret i32 1
}